; Function Attrs: mustprogress uwtable
define hidden void @_ZN2cv3ccm5Color4diffERS1_NS0_13DISTANCE_TYPEE(ptr dead_on_unwind noalias writable sret(%"class.cv::Mat") align 8 %0, ptr noundef nonnull align 8 dereferenceable(352) %1, ptr noundef nonnull align 8 dereferenceable(352) %2, i32 noundef %3) local_unnamed_addr #0 align 2 personality ptr @__gxx_personality_v0 {
  %5 = alloca %"class.cv::ccm::IO", align 8
  %6 = getelementptr inbounds i8, ptr %1, i64 104
  %7 = load ptr, ptr %6, align 8
  store ptr getelementptr inbounds inrange(-16, 16) (i8, ptr @_ZTVN2cv3ccm2IOE, i64 16), ptr %5, align 8
  %8 = getelementptr inbounds i8, ptr %5, i64 8
  %9 = getelementptr inbounds i8, ptr %7, i64 16
  call void @_ZNSt7__cxx1112basic_stringIcSt11char_traitsIcESaIcEEC1ERKS4_(ptr noundef nonnull align 8 dereferenceable(32) %8, ptr noundef nonnull align 8 dereferenceable(32) %9)
  %10 = getelementptr inbounds i8, ptr %5, i64 40
  %11 = getelementptr inbounds i8, ptr %7, i64 48
  invoke void @_ZNSt7__cxx1112basic_stringIcSt11char_traitsIcESaIcEEC1ERKS4_(ptr noundef nonnull align 8 dereferenceable(32) %10, ptr noundef nonnull align 8 dereferenceable(32) %11)
          to label %_ZN2cv3ccm2IOC2ERKS1_.exit unwind label %12

common.resume:                                    ; preds = %15, %12
  %common.resume.op = phi { ptr, i32 } [ %13, %12 ], [ %16, %15 ]
  call void @_ZNSt7__cxx1112basic_stringIcSt11char_traitsIcESaIcEED1Ev(ptr noundef nonnull align 8 dereferenceable(32) %8) #14
  resume { ptr, i32 } %common.resume.op

12:                                               ; preds = %4
  %13 = landingpad { ptr, i32 }
          cleanup
  br label %common.resume

_ZN2cv3ccm2IOC2ERKS1_.exit:                       ; preds = %4
  invoke void @_ZN2cv3ccm5Color4diffERS1_NS0_2IOENS0_13DISTANCE_TYPEE(ptr dead_on_unwind writable sret(%"class.cv::Mat") align 8 %0, ptr noundef nonnull align 8 dereferenceable(352) %1, ptr noundef nonnull align 8 dereferenceable(352) %2, ptr noundef nonnull %5, i32 noundef %3)
          to label %14 unwind label %15

14:                                               ; preds = %_ZN2cv3ccm2IOC2ERKS1_.exit
  store ptr getelementptr inbounds inrange(-16, 16) (i8, ptr @_ZTVN2cv3ccm2IOE, i64 16), ptr %5, align 8
  call void @_ZNSt7__cxx1112basic_stringIcSt11char_traitsIcESaIcEED1Ev(ptr noundef nonnull align 8 dereferenceable(32) %10) #14
  call void @_ZNSt7__cxx1112basic_stringIcSt11char_traitsIcESaIcEED1Ev(ptr noundef nonnull align 8 dereferenceable(32) %8) #14
  ret void

15:                                               ; preds = %_ZN2cv3ccm2IOC2ERKS1_.exit
  %16 = landingpad { ptr, i32 }
          cleanup
  store ptr getelementptr inbounds inrange(-16, 16) (i8, ptr @_ZTVN2cv3ccm2IOE, i64 16), ptr %5, align 8
  call void @_ZNSt7__cxx1112basic_stringIcSt11char_traitsIcESaIcEED1Ev(ptr noundef nonnull align 8 dereferenceable(32) %10) #14
  br label %common.resume
}